target datalayout = "e-m:e-p270:32:32-p271:32:32-p272:64:64-i64:64-i128:128-f80:128-n8:16:32:64-S128"
target triple = "x86_64-pc-linux-gnu"

%struct.PlannerGlobal = type { i32, ptr, ptr, ptr, ptr, ptr, ptr, ptr, ptr, ptr, ptr, ptr, ptr, ptr, ptr, ptr, ptr, i32, i32, i32, i8, i8, i8, i8, i8, ptr }
%struct.PlannerInfo = type { i32, ptr, ptr, i32, ptr, ptr, ptr, ptr, i32, ptr, ptr, ptr, ptr, ptr, ptr, ptr, ptr, i32, ptr, ptr, ptr, ptr, ptr, i8, ptr, ptr, ptr, ptr, ptr, i32, ptr, ptr, ptr, ptr, ptr, ptr, ptr, i32, ptr, ptr, ptr, i32, ptr, ptr, ptr, ptr, ptr, ptr, [8 x ptr], [8 x ptr], ptr, ptr, ptr, ptr, ptr, ptr, ptr, double, double, double, i32, i8, i8, i8, i8, i8, i8, i8, i32, ptr, ptr, i32, i8, i8, i32, ptr, ptr, ptr, ptr, ptr, ptr, i8, ptr }

; Function Attrs: nounwind uwtable
define dso_local ptr @expression_planner_with_deps(ptr noundef %0, ptr noundef %1, ptr noundef %2) #0 {
  %4 = alloca ptr, align 8
  %5 = alloca ptr, align 8
  %6 = alloca ptr, align 8
  %7 = alloca ptr, align 8
  %8 = alloca %struct.PlannerGlobal, align 8
  %9 = alloca %struct.PlannerInfo, align 8
  %10 = alloca ptr, align 8
  %11 = alloca i32, align 4
  %12 = alloca i64, align 8
  %13 = alloca ptr, align 8
  %14 = alloca ptr, align 8
  %15 = alloca ptr, align 8
  %16 = alloca i32, align 4
  %17 = alloca i64, align 8
  %18 = alloca ptr, align 8
  %19 = alloca ptr, align 8
  store ptr %0, ptr %4, align 8
  store ptr %1, ptr %5, align 8
  store ptr %2, ptr %6, align 8
  call void @llvm.lifetime.start.p0(i64 8, ptr %7) #8
  call void @llvm.lifetime.start.p0(i64 168, ptr %8) #8
  call void @llvm.lifetime.start.p0(i64 704, ptr %9) #8
  br label %20

20:                                               ; preds = %3
  call void @llvm.lifetime.start.p0(i64 8, ptr %10) #8
  store ptr %8, ptr %10, align 8
  call void @llvm.lifetime.start.p0(i64 4, ptr %11) #8
  store i32 0, ptr %11, align 4
  call void @llvm.lifetime.start.p0(i64 8, ptr %12) #8
  store i64 168, ptr %12, align 8
  %21 = load ptr, ptr %10, align 8
  %22 = ptrtoint ptr %21 to i64
  %23 = and i64 %22, 7
  %24 = icmp eq i64 %23, 0
  br i1 %24, label %25, label %48

25:                                               ; preds = %20
  %26 = load i64, ptr %12, align 8
  %27 = and i64 %26, 7
  %28 = icmp eq i64 %27, 0
  br i1 %28, label %29, label %48

29:                                               ; preds = %25
  %30 = load i32, ptr %11, align 4
  %31 = icmp eq i32 %30, 0
  br i1 %31, label %32, label %48

32:                                               ; preds = %29
  %33 = load i64, ptr %12, align 8
  %34 = icmp ule i64 %33, 1024
  br i1 %34, label %35, label %48

35:                                               ; preds = %32
  call void @llvm.lifetime.start.p0(i64 8, ptr %13) #8
  %36 = load ptr, ptr %10, align 8
  store ptr %36, ptr %13, align 8
  call void @llvm.lifetime.start.p0(i64 8, ptr %14) #8
  %37 = load ptr, ptr %13, align 8
  %38 = load i64, ptr %12, align 8
  %39 = getelementptr inbounds nuw i8, ptr %37, i64 %38
  store ptr %39, ptr %14, align 8
  br label %40

40:                                               ; preds = %44, %35
  %41 = load ptr, ptr %13, align 8
  %42 = load ptr, ptr %14, align 8
  %43 = icmp ult ptr %41, %42
  br i1 %43, label %44, label %47

44:                                               ; preds = %40
  %45 = load ptr, ptr %13, align 8
  %46 = getelementptr inbounds nuw i64, ptr %45, i32 1
  store ptr %46, ptr %13, align 8
  store i64 0, ptr %45, align 8
  br label %40, !llvm.loop !25

47:                                               ; preds = %40
  call void @llvm.lifetime.end.p0(i64 8, ptr %14) #8
  call void @llvm.lifetime.end.p0(i64 8, ptr %13) #8
  br label %53

48:                                               ; preds = %32, %29, %25, %20
  %49 = load ptr, ptr %10, align 8
  %50 = load i32, ptr %11, align 4
  %51 = trunc i32 %50 to i8
  %52 = load i64, ptr %12, align 8
  call void @llvm.memset.p0.i64(ptr align 1 %49, i8 %51, i64 %52, i1 false)
  br label %53

53:                                               ; preds = %48, %47
  call void @llvm.lifetime.end.p0(i64 8, ptr %12) #8
  call void @llvm.lifetime.end.p0(i64 4, ptr %11) #8
  call void @llvm.lifetime.end.p0(i64 8, ptr %10) #8
  br label %54

54:                                               ; preds = %53
  br label %55

55:                                               ; preds = %54
  %56 = getelementptr inbounds nuw %struct.PlannerGlobal, ptr %8, i32 0, i32 0
  store i32 265, ptr %56, align 8
  %57 = getelementptr inbounds nuw %struct.PlannerGlobal, ptr %8, i32 0, i32 14
  store ptr null, ptr %57, align 8
  %58 = getelementptr inbounds nuw %struct.PlannerGlobal, ptr %8, i32 0, i32 15
  store ptr null, ptr %58, align 8
  br label %59

59:                                               ; preds = %55
  call void @llvm.lifetime.start.p0(i64 8, ptr %15) #8
  store ptr %9, ptr %15, align 8
  call void @llvm.lifetime.start.p0(i64 4, ptr %16) #8
  store i32 0, ptr %16, align 4
  call void @llvm.lifetime.start.p0(i64 8, ptr %17) #8
  store i64 704, ptr %17, align 8
  %60 = load ptr, ptr %15, align 8
  %61 = ptrtoint ptr %60 to i64
  %62 = and i64 %61, 7
  %63 = icmp eq i64 %62, 0
  br i1 %63, label %64, label %87

64:                                               ; preds = %59
  %65 = load i64, ptr %17, align 8
  %66 = and i64 %65, 7
  %67 = icmp eq i64 %66, 0
  br i1 %67, label %68, label %87

68:                                               ; preds = %64
  %69 = load i32, ptr %16, align 4
  %70 = icmp eq i32 %69, 0
  br i1 %70, label %71, label %87

71:                                               ; preds = %68
  %72 = load i64, ptr %17, align 8
  %73 = icmp ule i64 %72, 1024
  br i1 %73, label %74, label %87

74:                                               ; preds = %71
  call void @llvm.lifetime.start.p0(i64 8, ptr %18) #8
  %75 = load ptr, ptr %15, align 8
  store ptr %75, ptr %18, align 8
  call void @llvm.lifetime.start.p0(i64 8, ptr %19) #8
  %76 = load ptr, ptr %18, align 8
  %77 = load i64, ptr %17, align 8
  %78 = getelementptr inbounds nuw i8, ptr %76, i64 %77
  store ptr %78, ptr %19, align 8
  br label %79

79:                                               ; preds = %83, %74
  %80 = load ptr, ptr %18, align 8
  %81 = load ptr, ptr %19, align 8
  %82 = icmp ult ptr %80, %81
  br i1 %82, label %83, label %86

83:                                               ; preds = %79
  %84 = load ptr, ptr %18, align 8
  %85 = getelementptr inbounds nuw i64, ptr %84, i32 1
  store ptr %85, ptr %18, align 8
  store i64 0, ptr %84, align 8
  br label %79, !llvm.loop !26

86:                                               ; preds = %79
  call void @llvm.lifetime.end.p0(i64 8, ptr %19) #8
  call void @llvm.lifetime.end.p0(i64 8, ptr %18) #8
  br label %92

87:                                               ; preds = %71, %68, %64, %59
  %88 = load ptr, ptr %15, align 8
  %89 = load i32, ptr %16, align 4
  %90 = trunc i32 %89 to i8
  %91 = load i64, ptr %17, align 8
  call void @llvm.memset.p0.i64(ptr align 1 %88, i8 %90, i64 %91, i1 false)
  br label %92

92:                                               ; preds = %87, %86
  call void @llvm.lifetime.end.p0(i64 8, ptr %17) #8
  call void @llvm.lifetime.end.p0(i64 4, ptr %16) #8
  call void @llvm.lifetime.end.p0(i64 8, ptr %15) #8
  br label %93

93:                                               ; preds = %92
  br label %94

94:                                               ; preds = %93
  %95 = getelementptr inbounds nuw %struct.PlannerInfo, ptr %9, i32 0, i32 0
  store i32 266, ptr %95, align 8
  %96 = getelementptr inbounds nuw %struct.PlannerInfo, ptr %9, i32 0, i32 2
  store ptr %8, ptr %96, align 8
  %97 = load ptr, ptr %4, align 8
  %98 = call ptr @eval_const_expressions(ptr noundef %9, ptr noundef %97)
  store ptr %98, ptr %7, align 8
  %99 = load ptr, ptr %7, align 8
  call void @fix_opfuncids(ptr noundef %99)
  %100 = load ptr, ptr %7, align 8
  %101 = call zeroext i1 @extract_query_dependencies_walker(ptr noundef %100, ptr noundef %9)
  %102 = getelementptr inbounds nuw %struct.PlannerGlobal, ptr %8, i32 0, i32 14
  %103 = load ptr, ptr %102, align 8
  %104 = load ptr, ptr %5, align 8
  store ptr %103, ptr %104, align 8
  %105 = getelementptr inbounds nuw %struct.PlannerGlobal, ptr %8, i32 0, i32 15
  %106 = load ptr, ptr %105, align 8
  %107 = load ptr, ptr %6, align 8
  store ptr %106, ptr %107, align 8
  %108 = load ptr, ptr %7, align 8
  call void @llvm.lifetime.end.p0(i64 704, ptr %9) #8
  call void @llvm.lifetime.end.p0(i64 168, ptr %8) #8
  call void @llvm.lifetime.end.p0(i64 8, ptr %7) #8
  ret ptr %108
}