; Function Attrs: nounwind uwtable
define dso_local noundef ptr @expression_planner_with_deps(ptr noundef %0, ptr noundef writeonly captures(none) initializes((0, 8)) %1, ptr noundef writeonly captures(none) initializes((0, 8)) %2) local_unnamed_addr #0 {
  %4 = alloca %struct.PlannerGlobal, align 8
  %5 = alloca %struct.PlannerInfo, align 8
  call void @llvm.lifetime.start.p0(i64 168, ptr nonnull %4) #12
  call void @llvm.lifetime.start.p0(i64 704, ptr nonnull %5) #12
  call void @llvm.memset.p0.i64(ptr noundef nonnull align 8 dereferenceable(168) %4, i8 0, i64 168, i1 false)
  store i32 265, ptr %4, align 8
  %6 = getelementptr inbounds nuw i8, ptr %4, i64 112
  %7 = getelementptr inbounds nuw i8, ptr %4, i64 120
  call void @llvm.memset.p0.i64(ptr noundef nonnull align 8 dereferenceable(16) %6, i8 0, i64 16, i1 false)
  call void @llvm.memset.p0.i64(ptr noundef nonnull align 8 dereferenceable(704) %5, i8 0, i64 704, i1 false)
  store i32 266, ptr %5, align 8
  %8 = getelementptr inbounds nuw i8, ptr %5, i64 16
  store ptr %4, ptr %8, align 8
  %9 = call ptr @eval_const_expressions(ptr noundef nonnull %5, ptr noundef %0) #12
  call void @fix_opfuncids(ptr noundef %9) #12
  %10 = call zeroext i1 @extract_query_dependencies_walker(ptr noundef %9, ptr noundef nonnull %5) #12
  %11 = load ptr, ptr %6, align 8
  store ptr %11, ptr %1, align 8
  %12 = load ptr, ptr %7, align 8
  store ptr %12, ptr %2, align 8
  call void @llvm.lifetime.end.p0(i64 704, ptr nonnull %5) #12
  call void @llvm.lifetime.end.p0(i64 168, ptr nonnull %4) #12
  ret ptr %9
}